target datalayout = "e-m:e-p270:32:32-p271:32:32-p272:64:64-i64:64-i128:128-f80:128-n8:16:32:64-S128"
target triple = "x86_64-pc-linux-gnu"

%struct.expert_field = type { i32, i32 }

@hf_ansi_637_tele_msg_type = internal global i32 0, align 4
@hf_ansi_637_tele_msg_id = internal global i32 0, align 4
@hf_ansi_637_tele_msg_header_ind = internal global i32 0, align 4
@hf_ansi_637_tele_msg_rsvd = internal global i32 0, align 4
@ei_ansi_637_unexpected_length = internal global %struct.expert_field zeroinitializer, align 4

; Function Attrs: null_pointer_is_valid sspstrong uwtable
define internal void @tele_param_msg_id(ptr noundef %0, ptr noundef %1, ptr noundef %2, i32 noundef %3, i32 noundef %4, ptr noundef %5) #0 {
  %7 = alloca ptr, align 8
  %8 = alloca ptr, align 8
  %9 = alloca ptr, align 8
  %10 = alloca i32, align 4
  %11 = alloca i32, align 4
  %12 = alloca ptr, align 8
  store ptr %0, ptr %7, align 8
  store ptr %1, ptr %8, align 8
  store ptr %2, ptr %9, align 8
  store i32 %3, ptr %10, align 4
  store i32 %4, ptr %11, align 4
  store ptr %5, ptr %12, align 8
  %13 = load i32, ptr %10, align 4
  %14 = icmp ne i32 %13, 3
  br i1 %14, label %15, label %22

15:                                               ; preds = %6
  %16 = load ptr, ptr %9, align 8
  %17 = load ptr, ptr %8, align 8
  %18 = load ptr, ptr %7, align 8
  %19 = load i32, ptr %11, align 4
  %20 = load i32, ptr %10, align 4
  %21 = call ptr @proto_tree_add_expert(ptr noundef %16, ptr noundef %17, ptr noundef @ei_ansi_637_unexpected_length, ptr noundef %18, i32 noundef %19, i32 noundef %20)
  br label %53

22:                                               ; preds = %6
  %23 = load ptr, ptr %9, align 8
  %24 = load i32, ptr @hf_ansi_637_tele_msg_type, align 4
  %25 = load ptr, ptr %7, align 8
  %26 = load i32, ptr %11, align 4
  %27 = call ptr @proto_tree_add_item(ptr noundef %23, i32 noundef %24, ptr noundef %25, i32 noundef %26, i32 noundef 3, i32 noundef 0)
  %28 = load ptr, ptr %9, align 8
  %29 = load i32, ptr @hf_ansi_637_tele_msg_id, align 4
  %30 = load ptr, ptr %7, align 8
  %31 = load i32, ptr %11, align 4
  %32 = call ptr @proto_tree_add_item(ptr noundef %28, i32 noundef %29, ptr noundef %30, i32 noundef %31, i32 noundef 3, i32 noundef 0)
  %33 = load ptr, ptr %9, align 8
  %34 = load i32, ptr @hf_ansi_637_tele_msg_header_ind, align 4
  %35 = load ptr, ptr %7, align 8
  %36 = load i32, ptr %11, align 4
  %37 = call ptr @proto_tree_add_item(ptr noundef %33, i32 noundef %34, ptr noundef %35, i32 noundef %36, i32 noundef 3, i32 noundef 0)
  %38 = load ptr, ptr %7, align 8
  %39 = load i32, ptr %11, align 4
  %40 = add i32 %39, 2
  %41 = call zeroext i8 @tvb_get_uint8(ptr noundef %38, i32 noundef %40)
  %42 = zext i8 %41 to i32
  %43 = and i32 %42, 8
  %44 = icmp eq i32 %43, 8
  br i1 %44, label %45, label %47

45:                                               ; preds = %22
  %46 = load ptr, ptr %12, align 8
  store i8 1, ptr %46, align 1
  br label %47

47:                                               ; preds = %45, %22
  %48 = load ptr, ptr %9, align 8
  %49 = load i32, ptr @hf_ansi_637_tele_msg_rsvd, align 4
  %50 = load ptr, ptr %7, align 8
  %51 = load i32, ptr %11, align 4
  %52 = call ptr @proto_tree_add_item(ptr noundef %48, i32 noundef %49, ptr noundef %50, i32 noundef %51, i32 noundef 3, i32 noundef 0)
  br label %53

53:                                               ; preds = %47, %15
  ret void
}