; Function Attrs: null_pointer_is_valid sspstrong uwtable
define internal void @tele_param_msg_id(ptr noundef %0, ptr noundef %1, ptr noundef %2, i32 noundef %3, i32 noundef %4, ptr noundef writeonly captures(none) %5) #0 {
  %.not = icmp eq i32 %3, 3
  br i1 %.not, label %9, label %7

7:                                                ; preds = %6
  %8 = tail call ptr @proto_tree_add_expert(ptr noundef %2, ptr noundef %1, ptr noundef nonnull @ei_ansi_637_unexpected_length, ptr noundef %0, i32 noundef %4, i32 noundef %3)
  br label %23

9:                                                ; preds = %6
  %10 = load i32, ptr @hf_ansi_637_tele_msg_type, align 4
  %11 = tail call ptr @proto_tree_add_item(ptr noundef %2, i32 noundef %10, ptr noundef %0, i32 noundef %4, i32 noundef 3, i32 noundef 0)
  %12 = load i32, ptr @hf_ansi_637_tele_msg_id, align 4
  %13 = tail call ptr @proto_tree_add_item(ptr noundef %2, i32 noundef %12, ptr noundef %0, i32 noundef %4, i32 noundef 3, i32 noundef 0)
  %14 = load i32, ptr @hf_ansi_637_tele_msg_header_ind, align 4
  %15 = tail call ptr @proto_tree_add_item(ptr noundef %2, i32 noundef %14, ptr noundef %0, i32 noundef %4, i32 noundef 3, i32 noundef 0)
  %16 = add i32 %4, 2
  %17 = tail call zeroext i8 @tvb_get_uint8(ptr noundef %0, i32 noundef %16)
  %18 = and i8 %17, 8
  %.not20 = icmp eq i8 %18, 0
  br i1 %.not20, label %20, label %19

19:                                               ; preds = %9
  store i8 1, ptr %5, align 1
  br label %20

20:                                               ; preds = %19, %9
  %21 = load i32, ptr @hf_ansi_637_tele_msg_rsvd, align 4
  %22 = tail call ptr @proto_tree_add_item(ptr noundef %2, i32 noundef %21, ptr noundef %0, i32 noundef %4, i32 noundef 3, i32 noundef 0)
  br label %23

23:                                               ; preds = %20, %7
  ret void
}